Certificate:
    Data:
        Version: 3 (0x2)
        Serial Number:
            83:5e:ce:28:1b:8a:db:83:04:2a:e1:95:70:de:fd:7e
        Signature Algorithm: sha256WithRSAEncryption
        Issuer: CN=OpenVpnServer
        Validity
            Not Before: Apr 20 13:26:25 2025 GMT
            Not After : Jul 24 13:26:25 2027 GMT
        Subject: CN=openVpnServer
        Subject Public Key Info:
            Public Key Algorithm: rsaEncryption
                Public-Key: (2048 bit)
                Modulus:
                    00:b7:ab:c9:9f:d5:14:24:ac:0d:9d:9a:57:b2:91:
                    0f:a2:1b:17:2c:91:a0:ec:54:64:d6:d6:5d:94:57:
                    f9:fa:71:c7:68:e7:3a:ca:d4:a3:4d:1e:38:1c:79:
                    f8:77:a7:c4:5a:d6:47:69:7f:e3:1a:ca:b2:49:1e:
                    5e:59:aa:89:a5:eb:14:56:8d:45:b6:c2:9a:1c:34:
                    20:52:51:60:54:1f:9f:b5:47:4a:ef:2e:4d:cf:eb:
                    2c:67:f9:dd:d1:f1:23:cf:af:ae:39:b7:47:a1:82:
                    85:08:04:49:05:a1:69:b6:0b:2e:8d:69:81:1c:ad:
                    cb:ef:87:0a:67:59:1e:6a:57:e0:b8:c4:5f:d0:b1:
                    b5:a7:85:ef:e5:14:01:32:4f:88:c5:11:48:3c:96:
                    b3:0d:e7:4a:67:31:f9:4e:d4:94:e0:ce:65:fb:b5:
                    41:51:31:58:b1:2e:cc:35:37:cf:cd:34:63:26:d3:
                    cd:02:e4:b0:d4:65:ef:e4:55:ab:f2:d3:04:44:1c:
                    e9:40:75:37:c7:9f:e3:f9:ea:da:6d:ac:89:51:f4:
                    a6:67:4e:f4:8e:76:8b:1e:17:93:1a:00:9e:d3:78:
                    e2:38:2e:ae:ab:47:c2:bb:7f:6a:be:4a:35:29:1e:
                    4c:d0:17:22:76:f4:21:8b:ed:9d:f2:85:8e:7b:22:
                    1b:db
                Exponent: 65537 (0x10001)
        X509v3 extensions:
            X509v3 Basic Constraints: 
                CA:FALSE
            X509v3 Subject Key Identifier: 
                E3:E8:DF:61:2C:43:FF:CB:99:CE:FB:D7:99:CC:B2:16:D2:F8:0E:A3
            X509v3 Authority Key Identifier: 
                keyid:B9:2E:FF:7E:BC:5F:F1:EE:41:74:E6:B3:8D:1C:88:3A:CF:A5:16:C8
                DirName:/CN=OpenVpnServer
                serial:50:8D:9E:1C:DE:A7:4E:52:18:74:33:67:46:78:B3:56:AD:AF:C4:19
            X509v3 Extended Key Usage: 
                TLS Web Server Authentication
            X509v3 Key Usage: 
                Digital Signature, Key Encipherment
            X509v3 Subject Alternative Name: 
                DNS:openVpnServer
    Signature Algorithm: sha256WithRSAEncryption
    Signature Value:
        7f:36:1e:5e:c1:c9:28:be:83:f7:c9:cc:43:5e:79:bb:15:aa:
        66:fa:a5:f1:ea:4c:48:b5:5f:a4:10:b3:20:84:a1:37:ea:19:
        22:24:75:da:41:48:59:68:82:02:c3:56:3f:66:43:6c:a1:f0:
        6d:5e:81:83:10:4a:f0:de:98:b6:4b:90:e4:7a:82:38:a6:11:
        c7:6e:3e:85:96:11:0a:fc:49:e9:fd:b5:81:44:b8:d7:6a:97:
        03:43:5f:a2:51:dc:93:c7:ac:fe:b1:32:42:48:b5:7e:90:a0:
        26:5d:06:e8:a3:17:1b:8b:e1:09:25:f1:9e:40:81:2b:04:04:
        29:68:f6:73:8c:23:22:a0:a1:c1:74:90:1a:d0:88:1c:be:43:
        4c:2f:fe:4e:a0:5a:ac:84:f3:59:f7:41:4c:f6:ca:55:6a:07:
        a8:aa:19:5d:46:1f:97:ed:d1:25:63:9d:3a:7e:8f:c3:dc:00:
        2e:28:bf:d6:52:fd:68:9c:b3:a5:8a:85:91:35:97:08:e9:73:
        33:ca:ee:92:95:1a:71:1e:ce:a4:88:00:9f:c3:05:3e:43:e2:
        75:76:e5:f8:51:3a:7a:38:64:08:b6:5d:dc:8f:93:38:b8:a0:
        52:92:cc:8c:f3:7e:25:b8:03:23:6e:1b:7d:31:c9:ea:31:76:
        51:1c:29:27
-----BEGIN CERTIFICATE-----
MIIDejCCAmKgAwIBAgIRAINezigbituDBCrhlXDe/X4wDQYJKoZIhvcNAQELBQAw
GDEWMBQGA1UEAwwNT3BlblZwblNlcnZlcjAeFw0yNTA0MjAxMzI2MjVaFw0yNzA3
MjQxMzI2MjVaMBgxFjAUBgNVBAMMDW9wZW5WcG5TZXJ2ZXIwggEiMA0GCSqGSIb3
DQEBAQUAA4IBDwAwggEKAoIBAQC3q8mf1RQkrA2dmleykQ+iGxcskaDsVGTW1l2U
V/n6ccdo5zrK1KNNHjgcefh3p8Ra1kdpf+MayrJJHl5Zqoml6xRWjUW2wpocNCBS
UWBUH5+1R0rvLk3P6yxn+d3R8SPPr645t0ehgoUIBEkFoWm2Cy6NaYEcrcvvhwpn
WR5qV+C4xF/QsbWnhe/lFAEyT4jFEUg8lrMN50pnMflO1JTgzmX7tUFRMVixLsw1
N8/NNGMm080C5LDUZe/kVavy0wREHOlAdTfHn+P56tptrIlR9KZnTvSOdoseF5Ma
AJ7TeOI4Lq6rR8K7f2q+SjUpHkzQFyJ29CGL7Z3yhY57IhvbAgMBAAGjgb4wgbsw
CQYDVR0TBAIwADAdBgNVHQ4EFgQU4+jfYSxD/8uZzvvXmcyyFtL4DqMwUwYDVR0j
BEwwSoAUuS7/frxf8e5BdOazjRyIOs+lFsihHKQaMBgxFjAUBgNVBAMMDU9wZW5W
cG5TZXJ2ZXKCFFCNnhzep05SGHQzZ0Z4s1atr8QZMBMGA1UdJQQMMAoGCCsGAQUF
BwMBMAsGA1UdDwQEAwIFoDAYBgNVHREEETAPgg1vcGVuVnBuU2VydmVyMA0GCSqG
SIb3DQEBCwUAA4IBAQB/Nh5ewckovoP3ycxDXnm7Fapm+qXx6kxItV+kELMghKE3
6hkiJHXaQUhZaIICw1Y/ZkNsofBtXoGDEErw3pi2S5DkeoI4phHHbj6FlhEK/Enp
/bWBRLjXapcDQ1+iUdyTx6z+sTJCSLV+kKAmXQbooxcbi+EJJfGeQIErBAQpaPZz
jCMioKHBdJAa0IgcvkNML/5OoFqshPNZ90FM9spVageoqhldRh+X7dElY506fo/D
3AAuKL/WUv1onLOlioWRNZcI6XMzyu6SlRpxHs6kiACfwwU+Q+J1duX4UTp6OGQI
tl3cj5M4uKBSksyM834luAMjbht9McnqMXZRHCkn
-----END CERTIFICATE-----
